target datalayout = "e-m:e-p270:32:32-p271:32:32-p272:64:64-i64:64-i128:128-f80:128-n8:16:32:64-S128"
target triple = "x86_64-pc-linux-gnu"

%struct.strbuf = type { i64, i64, ptr }
%struct.todo_list = type { %struct.strbuf, ptr, i32, i32, i32, i32, i32 }
%struct.todo_item = type { i32, ptr, i32, i32, i64, i64 }

@__const.todo_list_write_to_file.buf = private unnamed_addr constant %struct.strbuf { i64 0, i64 0, ptr @strbuf_slopbuf }, align 8

; Function Attrs: nounwind uwtable
define internal i32 @count_commands(ptr noundef %0) #0 {
  %2 = alloca ptr, align 8
  %3 = alloca i32, align 4
  %4 = alloca i32, align 4
  store ptr %0, ptr %2, align 8, !tbaa !136
  call void @llvm.lifetime.start.p0(i64 4, ptr %3) #11
  store i32 0, ptr %3, align 4, !tbaa !29
  call void @llvm.lifetime.start.p0(i64 4, ptr %4) #11
  store i32 0, ptr %4, align 4, !tbaa !29
  br label %5

5:                                                ; preds = %25, %1
  %6 = load i32, ptr %4, align 4, !tbaa !29
  %7 = load ptr, ptr %2, align 8, !tbaa !136
  %8 = getelementptr inbounds nuw %struct.todo_list, ptr %7, i32 0, i32 2
  %9 = load i32, ptr %8, align 8, !tbaa !142
  %10 = icmp slt i32 %6, %9
  br i1 %10, label %11, label %28

11:                                               ; preds = %5
  %12 = load ptr, ptr %2, align 8, !tbaa !136
  %13 = getelementptr inbounds nuw %struct.todo_list, ptr %12, i32 0, i32 1
  %14 = load ptr, ptr %13, align 8, !tbaa !138
  %15 = load i32, ptr %4, align 4, !tbaa !29
  %16 = sext i32 %15 to i64
  %17 = getelementptr inbounds %struct.todo_item, ptr %14, i64 %16
  %18 = getelementptr inbounds nuw %struct.todo_item, ptr %17, i32 0, i32 0
  %19 = load i32, ptr %18, align 8, !tbaa !153
  %20 = icmp ne i32 %19, 14
  br i1 %20, label %21, label %24

21:                                               ; preds = %11
  %22 = load i32, ptr %3, align 4, !tbaa !29
  %23 = add nsw i32 %22, 1
  store i32 %23, ptr %3, align 4, !tbaa !29
  br label %24

24:                                               ; preds = %21, %11
  br label %25

25:                                               ; preds = %24
  %26 = load i32, ptr %4, align 4, !tbaa !29
  %27 = add nsw i32 %26, 1
  store i32 %27, ptr %4, align 4, !tbaa !29
  br label %5, !llvm.loop !277

28:                                               ; preds = %5
  %29 = load i32, ptr %3, align 4, !tbaa !29
  call void @llvm.lifetime.end.p0(i64 4, ptr %4) #11
  call void @llvm.lifetime.end.p0(i64 4, ptr %3) #11
  ret i32 %29
}

; Function Attrs: nounwind uwtable
define dso_local i32 @todo_list_write_to_file(ptr noundef %0, ptr noundef %1, ptr noundef %2, ptr noundef %3, ptr noundef %4, i32 noundef %5, i32 noundef %6) #0 {
  %8 = alloca ptr, align 8
  %9 = alloca ptr, align 8
  %10 = alloca ptr, align 8
  %11 = alloca ptr, align 8
  %12 = alloca ptr, align 8
  %13 = alloca i32, align 4
  %14 = alloca i32, align 4
  %15 = alloca i32, align 4
  %16 = alloca %struct.strbuf, align 8
  store ptr %0, ptr %8, align 8, !tbaa !9
  store ptr %1, ptr %9, align 8, !tbaa !136
  store ptr %2, ptr %10, align 8, !tbaa !4
  store ptr %3, ptr %11, align 8, !tbaa !4
  store ptr %4, ptr %12, align 8, !tbaa !4
  store i32 %5, ptr %13, align 4, !tbaa !29
  store i32 %6, ptr %14, align 4, !tbaa !29
  call void @llvm.lifetime.start.p0(i64 4, ptr %15) #11
  call void @llvm.lifetime.start.p0(i64 24, ptr %16) #11
  call void @llvm.memcpy.p0.p0.i64(ptr align 8 %16, ptr align 8 @__const.todo_list_write_to_file.buf, i64 24, i1 false)
  %17 = load ptr, ptr %8, align 8, !tbaa !9
  %18 = load ptr, ptr %9, align 8, !tbaa !136
  %19 = load i32, ptr %13, align 4, !tbaa !29
  %20 = load i32, ptr %14, align 4, !tbaa !29
  call void @todo_list_to_strbuf(ptr noundef %17, ptr noundef %18, ptr noundef %16, i32 noundef %19, i32 noundef %20)
  %21 = load i32, ptr %14, align 4, !tbaa !29
  %22 = and i32 %21, 32
  %23 = icmp ne i32 %22, 0
  br i1 %23, label %24, label %29

24:                                               ; preds = %7
  %25 = load ptr, ptr %9, align 8, !tbaa !136
  %26 = call i32 @count_commands(ptr noundef %25)
  %27 = load ptr, ptr %11, align 8, !tbaa !4
  %28 = load ptr, ptr %12, align 8, !tbaa !4
  call void @append_todo_help(i32 noundef %26, ptr noundef %27, ptr noundef %28, ptr noundef %16)
  br label %29

29:                                               ; preds = %24, %7
  %30 = getelementptr inbounds nuw %struct.strbuf, ptr %16, i32 0, i32 2
  %31 = load ptr, ptr %30, align 8, !tbaa !37
  %32 = getelementptr inbounds nuw %struct.strbuf, ptr %16, i32 0, i32 1
  %33 = load i64, ptr %32, align 8, !tbaa !45
  %34 = load ptr, ptr %10, align 8, !tbaa !4
  %35 = call i32 @write_message(ptr noundef %31, i64 noundef %33, ptr noundef %34, i32 noundef 0)
  store i32 %35, ptr %15, align 4, !tbaa !29
  call void @strbuf_release(ptr noundef %16)
  %36 = load i32, ptr %15, align 4, !tbaa !29
  call void @llvm.lifetime.end.p0(i64 24, ptr %16) #11
  call void @llvm.lifetime.end.p0(i64 4, ptr %15) #11
  ret i32 %36
}