; Function Attrs: nounwind uwtable
define dso_local range(i32 -1, 1) i32 @todo_list_write_to_file(ptr noundef %0, ptr noundef readonly captures(none) %1, ptr noundef %2, ptr noundef %3, ptr noundef %4, i32 noundef %5, i32 noundef %6) local_unnamed_addr #0 {
  %8 = alloca %struct.strbuf, align 8
  call void @llvm.lifetime.start.p0(i64 24, ptr nonnull %8) #20
  call void @llvm.memcpy.p0.p0.i64(ptr noundef nonnull align 8 dereferenceable(24) %8, ptr noundef nonnull align 8 dereferenceable(24) @__const.make_script_with_merges.label_from_message, i64 24, i1 false)
  call fastcc void @todo_list_to_strbuf(ptr noundef %0, ptr noundef %1, ptr noundef %8, i32 noundef %5, i32 noundef %6)
  %9 = and i32 %6, 32
  %.not = icmp eq i32 %9, 0
  br i1 %.not, label %20, label %10

10:                                               ; preds = %7
  %11 = getelementptr inbounds nuw i8, ptr %1, i64 32
  %12 = load i32, ptr %11, align 8, !tbaa !119
  %13 = icmp sgt i32 %12, 0
  br i1 %13, label %.lr.ph.i, label %count_commands.exit

.lr.ph.i:                                         ; preds = %10
  %14 = getelementptr inbounds nuw i8, ptr %1, i64 24
  %15 = load ptr, ptr %14, align 8, !tbaa !111
  %wide.trip.count.i = zext nneg i32 %12 to i64
  br label %16

16:                                               ; preds = %16, %.lr.ph.i
  %indvars.iv.i = phi i64 [ 0, %.lr.ph.i ], [ %indvars.iv.next.i, %16 ]
  %.067.i = phi i32 [ 0, %.lr.ph.i ], [ %spec.select.i, %16 ]
  %17 = getelementptr inbounds nuw %struct.todo_item, ptr %15, i64 %indvars.iv.i
  %18 = load i32, ptr %17, align 8, !tbaa !124
  %.not.i = icmp ne i32 %18, 14
  %19 = zext i1 %.not.i to i32
  %spec.select.i = add nuw nsw i32 %.067.i, %19
  %indvars.iv.next.i = add nuw nsw i64 %indvars.iv.i, 1
  %exitcond.not.i = icmp eq i64 %indvars.iv.next.i, %wide.trip.count.i
  br i1 %exitcond.not.i, label %count_commands.exit, label %16, !llvm.loop !192

count_commands.exit:                              ; preds = %16, %10
  %.06.lcssa.i = phi i32 [ 0, %10 ], [ %spec.select.i, %16 ]
  call void @append_todo_help(i32 noundef %.06.lcssa.i, ptr noundef %3, ptr noundef %4, ptr noundef nonnull %8) #20
  br label %20

20:                                               ; preds = %count_commands.exit, %7
  %21 = getelementptr inbounds nuw i8, ptr %8, i64 16
  %22 = load ptr, ptr %21, align 8, !tbaa !31
  %23 = getelementptr inbounds nuw i8, ptr %8, i64 8
  %24 = load i64, ptr %23, align 8, !tbaa !33
  %25 = call fastcc i32 @write_message(ptr noundef %22, i64 noundef %24, ptr noundef %2, i32 noundef 0)
  call void @strbuf_release(ptr noundef nonnull %8) #20
  call void @llvm.lifetime.end.p0(i64 24, ptr nonnull %8) #20
  ret i32 %25
}